; Function Attrs: nounwind uwtable
define ptr @Ivy_And(ptr noundef %0, ptr noundef %1, ptr noundef %2) local_unnamed_addr #0 {
  %4 = icmp eq ptr %1, %2
  br i1 %4, label %40, label %5

5:                                                ; preds = %3
  %6 = ptrtoint ptr %2 to i64
  %7 = xor i64 %6, 1
  %8 = inttoptr i64 %7 to ptr
  %9 = icmp eq ptr %1, %8
  br i1 %9, label %10, label %16

10:                                               ; preds = %5
  %11 = getelementptr inbounds nuw i8, ptr %0, i64 32
  %12 = load ptr, ptr %11, align 8, !tbaa !3
  %13 = ptrtoint ptr %12 to i64
  %14 = xor i64 %13, 1
  %15 = inttoptr i64 %14 to ptr
  br label %40

16:                                               ; preds = %5
  %17 = ptrtoint ptr %1 to i64
  %18 = and i64 %17, -2
  %19 = inttoptr i64 %18 to ptr
  %20 = getelementptr inbounds nuw i8, ptr %0, i64 32
  %21 = load ptr, ptr %20, align 8, !tbaa !3
  %22 = icmp eq ptr %21, %19
  br i1 %22, label %23, label %28

23:                                               ; preds = %16
  %24 = icmp eq ptr %1, %19
  br i1 %24, label %40, label %25

25:                                               ; preds = %23
  %26 = or i64 %17, 1
  %27 = inttoptr i64 %26 to ptr
  br label %40

28:                                               ; preds = %16
  %29 = and i64 %6, -2
  %30 = inttoptr i64 %29 to ptr
  %31 = icmp eq ptr %21, %30
  br i1 %31, label %32, label %38

32:                                               ; preds = %28
  %33 = icmp eq ptr %2, %21
  br i1 %33, label %40, label %34

34:                                               ; preds = %32
  %35 = ptrtoint ptr %21 to i64
  %36 = xor i64 %35, 1
  %37 = inttoptr i64 %36 to ptr
  br label %40

38:                                               ; preds = %28
  %39 = tail call ptr @Ivy_CanonAnd(ptr noundef nonnull %0, ptr noundef %1, ptr noundef %2) #2
  br label %40

40:                                               ; preds = %34, %32, %25, %23, %3, %38, %10
  %.0 = phi ptr [ %15, %10 ], [ %39, %38 ], [ %1, %3 ], [ %27, %25 ], [ %2, %23 ], [ %37, %34 ], [ %1, %32 ]
  ret ptr %.0
}